// Copyright (c) Huawei Technologies Co., Ltd. 2025. All rights reserved.
// This source file is part of the Cangjie project, licensed under Apache-2.0
// with Runtime Library Exception.
//
// See https://cangjie-lang.cn/pages/LICENSE for license information.

// The Cangjie API is in Beta. For details on its capabilities and limitations, please refer to the README file.

    .text
    .p2align        2               // -- Begin function __CJ_Init_Start
    .type   __CJ_Init_Start,%function
__CJ_Init_Start:                        // @__CJ_Init_Start
    .cfi_startproc

// %bb.0:
    push    {r4, lr}
    .cfi_def_cfa_offset 8
    .cfi_offset lr, -4
    .cfi_offset r4, -8

    ldr     r0, .LCJMetadataStart_0
.LPC_0:
    ldr     r0, [pc, r0]
    mov     r1, #1
    bl      MRT_LibraryOnLoad

    pop     {r4, lr}
    bx      lr

.LCJMetadataStart_0:
    .word  __CJMetadataStart(GOT_PREL)-((.LPC_0+8)-.LCJMetadataStart_0)
.Lfunc_end12:
    .size   __CJ_Init_Start, .Lfunc_end12-__CJ_Init_Start
    .cfi_endproc

    .section        .init_array.0,"aw",%init_array
    .p2align        2
    .word  __CJ_Init_Start

    .text
    .p2align        2               // -- Begin function __CJ_Fini_End
    .type   __CJ_Fini_End,%function
__CJ_Fini_End:                        // @__CJ_Fini_End
    .cfi_startproc
// %bb.0:
    push {r4, lr}
    .cfi_def_cfa_offset 8
    .cfi_offset lr, -4
    .cfi_offset r4, -8

    ldr     r0, .LCJMetadataStart_1
.LPC_1:
    ldr     r0, [pc, r0]
    bl      MRT_LibraryUnLoad
    pop     {r4, lr}
    bx      lr

.LCJMetadataStart_1:
    .word  __CJMetadataStart(GOT_PREL)-((.LPC_1+8)-.LCJMetadataStart_1)
.Lfunc_end:
    .size   __CJ_Fini_End, .Lfunc_end-__CJ_Fini_End
    .cfi_endproc

    .section        .fini_array.0,"aw",%fini_array
    .p2align        2
    .word  __CJ_Fini_End

    .section  .cjmetadata.rw.header
    .p2align  4
    .long 0x12345678
    .long 0x80000000
    .long 0
    .long __CJMetaDataSize
    .long __CJSDKVersion
    .long __CJMethodInfo
    .long __CJMethodInfoSize
    .long __CJGlobalInitFunc
    .long __CJGlobalInitFuncSize
    .long __CJStringPoolDict
    .long __CJStringPoolDictSize
    .long __CJStringPool
    .long __CJStringPoolSize
    .long __CJStackMap
    .long __CJStackMapSize
    .long __CJGCTib
    .long __CJGCTibSize
    .long __CJGCRoots
    .long __CJGCRootsSize
    .long __CJTypeTemplate
    .long __CJTypeTemplateSize
    .long __CJTypeInfo
    .long __CJTypeInfoSize
    .long __CJTypeFields
    .long __CJTypeFieldsSize
    .long __CJMTable
    .long __CJMTableSize
    .long __CJInnerTypeExtensions
    .long __CJInnerTypeExtensionsSize
    .long __CJOuterTypeExtensions
    .long __CJOuterTypeExtensionsSize
    .long __CJStaticGITable
    .long __CJStaticGITableSize
    .long __CJGCFlags
    .long __CJGCFlagsSize
    .long __CJReflectPkgInfo
    .long __CJGCReflectPkgInfoSize
    .long __CJReflectGV
    .long __CJReflectGVSize
    .long __CJReflectGI
    .long __CJReflectGISize
